; Function Attrs: nounwind uwtable
define nonnull ptr @l_Std_Tactic_BVDecide_LRAT_Internal_Assignment_addNegAssignment___boxed(ptr noundef %0) local_unnamed_addr #1 {
  %2 = ptrtoint ptr %0 to i64
  %3 = and i64 %2, 1
  %.not = icmp eq i64 %3, 0
  br i1 %.not, label %4, label %lean_dec.exit

4:                                                ; preds = %1
  %5 = load i32, ptr %0, align 4, !tbaa !4
  %6 = icmp sgt i32 %5, 1
  br i1 %6, label %7, label %9, !prof !9

7:                                                ; preds = %4
  %8 = add nsw i32 %5, -1
  store i32 %8, ptr %0, align 4, !tbaa !4
  br label %lean_dec.exit

9:                                                ; preds = %4
  %.not.i = icmp eq i32 %5, 0
  br i1 %.not.i, label %lean_dec.exit, label %10

10:                                               ; preds = %9
  tail call void @lean_dec_ref_cold(ptr noundef nonnull %0) #6
  br label %lean_dec.exit

lean_dec.exit:                                    ; preds = %10, %9, %7, %1
  %11 = trunc i64 %2 to i32
  %12 = lshr i32 %11, 1
  %13 = and i32 %12, 255
  %14 = add nsw i32 %13, -1
  %switch.and.i = and i32 %14, -3
  %switch.selectcmp.i = icmp eq i32 %switch.and.i, 0
  %15 = select i1 %switch.selectcmp.i, ptr inttoptr (i64 3 to ptr), ptr inttoptr (i64 5 to ptr)
  ret ptr %15
}